target datalayout = "e-m:e-p270:32:32-p271:32:32-p272:64:64-i64:64-i128:128-f80:128-n8:16:32:64-S128"
target triple = "x86_64-pc-linux-gnu"

%struct.BITS_msvc = type { i32, i32, i16, i16 }

; Function Attrs: nounwind uwtable
define i32 @unpack_bitfields_msvc(ptr noundef %0, i8 noundef signext %1) #0 {
  %3 = alloca i32, align 4
  %4 = alloca ptr, align 8
  %5 = alloca i8, align 1
  store ptr %0, ptr %4, align 8, !tbaa !74
  store i8 %1, ptr %5, align 1, !tbaa !20
  %6 = load i8, ptr %5, align 1, !tbaa !20
  %7 = sext i8 %6 to i32
  switch i32 %7, label %104 [
    i32 65, label %8
    i32 66, label %13
    i32 67, label %18
    i32 68, label %23
    i32 69, label %28
    i32 70, label %33
    i32 71, label %38
    i32 72, label %43
    i32 73, label %49
    i32 77, label %55
    i32 78, label %62
    i32 79, label %69
    i32 80, label %76
    i32 81, label %83
    i32 82, label %90
    i32 83, label %97
  ]

8:                                                ; preds = %2
  %9 = load ptr, ptr %4, align 8, !tbaa !74
  %10 = load i32, ptr %9, align 4
  %11 = shl i32 %10, 31
  %12 = ashr i32 %11, 31
  store i32 %12, ptr %3, align 4
  br label %105

13:                                               ; preds = %2
  %14 = load ptr, ptr %4, align 8, !tbaa !74
  %15 = load i32, ptr %14, align 4
  %16 = shl i32 %15, 29
  %17 = ashr i32 %16, 30
  store i32 %17, ptr %3, align 4
  br label %105

18:                                               ; preds = %2
  %19 = load ptr, ptr %4, align 8, !tbaa !74
  %20 = load i32, ptr %19, align 4
  %21 = shl i32 %20, 26
  %22 = ashr i32 %21, 29
  store i32 %22, ptr %3, align 4
  br label %105

23:                                               ; preds = %2
  %24 = load ptr, ptr %4, align 8, !tbaa !74
  %25 = load i32, ptr %24, align 4
  %26 = shl i32 %25, 22
  %27 = ashr i32 %26, 28
  store i32 %27, ptr %3, align 4
  br label %105

28:                                               ; preds = %2
  %29 = load ptr, ptr %4, align 8, !tbaa !74
  %30 = load i32, ptr %29, align 4
  %31 = shl i32 %30, 17
  %32 = ashr i32 %31, 27
  store i32 %32, ptr %3, align 4
  br label %105

33:                                               ; preds = %2
  %34 = load ptr, ptr %4, align 8, !tbaa !74
  %35 = load i32, ptr %34, align 4
  %36 = shl i32 %35, 11
  %37 = ashr i32 %36, 26
  store i32 %37, ptr %3, align 4
  br label %105

38:                                               ; preds = %2
  %39 = load ptr, ptr %4, align 8, !tbaa !74
  %40 = load i32, ptr %39, align 4
  %41 = shl i32 %40, 4
  %42 = ashr i32 %41, 25
  store i32 %42, ptr %3, align 4
  br label %105

43:                                               ; preds = %2
  %44 = load ptr, ptr %4, align 8, !tbaa !74
  %45 = getelementptr inbounds nuw %struct.BITS_msvc, ptr %44, i32 0, i32 1
  %46 = load i32, ptr %45, align 4
  %47 = shl i32 %46, 24
  %48 = ashr i32 %47, 24
  store i32 %48, ptr %3, align 4
  br label %105

49:                                               ; preds = %2
  %50 = load ptr, ptr %4, align 8, !tbaa !74
  %51 = getelementptr inbounds nuw %struct.BITS_msvc, ptr %50, i32 0, i32 1
  %52 = load i32, ptr %51, align 4
  %53 = shl i32 %52, 15
  %54 = ashr i32 %53, 23
  store i32 %54, ptr %3, align 4
  br label %105

55:                                               ; preds = %2
  %56 = load ptr, ptr %4, align 8, !tbaa !74
  %57 = getelementptr inbounds nuw %struct.BITS_msvc, ptr %56, i32 0, i32 2
  %58 = load i16, ptr %57, align 4
  %59 = shl i16 %58, 15
  %60 = ashr i16 %59, 15
  %61 = sext i16 %60 to i32
  store i32 %61, ptr %3, align 4
  br label %105

62:                                               ; preds = %2
  %63 = load ptr, ptr %4, align 8, !tbaa !74
  %64 = getelementptr inbounds nuw %struct.BITS_msvc, ptr %63, i32 0, i32 2
  %65 = load i16, ptr %64, align 4
  %66 = shl i16 %65, 13
  %67 = ashr i16 %66, 14
  %68 = sext i16 %67 to i32
  store i32 %68, ptr %3, align 4
  br label %105

69:                                               ; preds = %2
  %70 = load ptr, ptr %4, align 8, !tbaa !74
  %71 = getelementptr inbounds nuw %struct.BITS_msvc, ptr %70, i32 0, i32 2
  %72 = load i16, ptr %71, align 4
  %73 = shl i16 %72, 10
  %74 = ashr i16 %73, 13
  %75 = sext i16 %74 to i32
  store i32 %75, ptr %3, align 4
  br label %105

76:                                               ; preds = %2
  %77 = load ptr, ptr %4, align 8, !tbaa !74
  %78 = getelementptr inbounds nuw %struct.BITS_msvc, ptr %77, i32 0, i32 2
  %79 = load i16, ptr %78, align 4
  %80 = shl i16 %79, 6
  %81 = ashr i16 %80, 12
  %82 = sext i16 %81 to i32
  store i32 %82, ptr %3, align 4
  br label %105

83:                                               ; preds = %2
  %84 = load ptr, ptr %4, align 8, !tbaa !74
  %85 = getelementptr inbounds nuw %struct.BITS_msvc, ptr %84, i32 0, i32 2
  %86 = load i16, ptr %85, align 4
  %87 = shl i16 %86, 1
  %88 = ashr i16 %87, 11
  %89 = sext i16 %88 to i32
  store i32 %89, ptr %3, align 4
  br label %105

90:                                               ; preds = %2
  %91 = load ptr, ptr %4, align 8, !tbaa !74
  %92 = getelementptr inbounds nuw %struct.BITS_msvc, ptr %91, i32 0, i32 3
  %93 = load i16, ptr %92, align 2
  %94 = shl i16 %93, 10
  %95 = ashr i16 %94, 10
  %96 = sext i16 %95 to i32
  store i32 %96, ptr %3, align 4
  br label %105

97:                                               ; preds = %2
  %98 = load ptr, ptr %4, align 8, !tbaa !74
  %99 = getelementptr inbounds nuw %struct.BITS_msvc, ptr %98, i32 0, i32 3
  %100 = load i16, ptr %99, align 2
  %101 = shl i16 %100, 3
  %102 = ashr i16 %101, 9
  %103 = sext i16 %102 to i32
  store i32 %103, ptr %3, align 4
  br label %105

104:                                              ; preds = %2
  store i32 999, ptr %3, align 4
  br label %105

105:                                              ; preds = %104, %97, %90, %83, %76, %69, %62, %55, %49, %43, %38, %33, %28, %23, %18, %13, %8
  %106 = load i32, ptr %3, align 4
  ret i32 %106
}