; Function Attrs: mustprogress nofree norecurse nosync nounwind willreturn memory(argmem: read) uwtable
define range(i32 -256, 1000) i32 @unpack_bitfields_msvc(ptr noundef readonly captures(none) %0, i8 noundef signext %1) local_unnamed_addr #11 {
  switch i8 %1, label %83 [
    i8 65, label %3
    i8 66, label %7
    i8 67, label %11
    i8 68, label %15
    i8 69, label %19
    i8 70, label %23
    i8 71, label %27
    i8 72, label %31
    i8 73, label %36
    i8 77, label %41
    i8 78, label %47
    i8 79, label %53
    i8 80, label %59
    i8 81, label %65
    i8 82, label %71
    i8 83, label %77
  ]

3:                                                ; preds = %2
  %4 = load i32, ptr %0, align 4
  %5 = and i32 %4, 1
  %6 = sub nsw i32 0, %5
  br label %83

7:                                                ; preds = %2
  %8 = load i32, ptr %0, align 4
  %9 = shl i32 %8, 29
  %10 = ashr i32 %9, 30
  br label %83

11:                                               ; preds = %2
  %12 = load i32, ptr %0, align 4
  %13 = shl i32 %12, 26
  %14 = ashr i32 %13, 29
  br label %83

15:                                               ; preds = %2
  %16 = load i32, ptr %0, align 4
  %17 = shl i32 %16, 22
  %18 = ashr i32 %17, 28
  br label %83

19:                                               ; preds = %2
  %20 = load i32, ptr %0, align 4
  %21 = shl i32 %20, 17
  %22 = ashr i32 %21, 27
  br label %83

23:                                               ; preds = %2
  %24 = load i32, ptr %0, align 4
  %25 = shl i32 %24, 11
  %26 = ashr i32 %25, 26
  br label %83

27:                                               ; preds = %2
  %28 = load i32, ptr %0, align 4
  %29 = shl i32 %28, 4
  %30 = ashr i32 %29, 25
  br label %83

31:                                               ; preds = %2
  %32 = getelementptr inbounds nuw i8, ptr %0, i64 4
  %33 = load i32, ptr %32, align 4
  %34 = shl i32 %33, 24
  %35 = ashr exact i32 %34, 24
  br label %83

36:                                               ; preds = %2
  %37 = getelementptr inbounds nuw i8, ptr %0, i64 4
  %38 = load i32, ptr %37, align 4
  %39 = shl i32 %38, 15
  %40 = ashr i32 %39, 23
  br label %83

41:                                               ; preds = %2
  %42 = getelementptr inbounds nuw i8, ptr %0, i64 8
  %43 = load i16, ptr %42, align 4
  %44 = and i16 %43, 1
  %45 = sub nsw i16 0, %44
  %46 = sext i16 %45 to i32
  br label %83

47:                                               ; preds = %2
  %48 = getelementptr inbounds nuw i8, ptr %0, i64 8
  %49 = load i16, ptr %48, align 4
  %50 = shl i16 %49, 13
  %51 = ashr i16 %50, 14
  %52 = sext i16 %51 to i32
  br label %83

53:                                               ; preds = %2
  %54 = getelementptr inbounds nuw i8, ptr %0, i64 8
  %55 = load i16, ptr %54, align 4
  %56 = shl i16 %55, 10
  %57 = ashr i16 %56, 13
  %58 = sext i16 %57 to i32
  br label %83

59:                                               ; preds = %2
  %60 = getelementptr inbounds nuw i8, ptr %0, i64 8
  %61 = load i16, ptr %60, align 4
  %62 = shl i16 %61, 6
  %63 = ashr i16 %62, 12
  %64 = sext i16 %63 to i32
  br label %83

65:                                               ; preds = %2
  %66 = getelementptr inbounds nuw i8, ptr %0, i64 8
  %67 = load i16, ptr %66, align 4
  %68 = shl i16 %67, 1
  %69 = ashr i16 %68, 11
  %70 = sext i16 %69 to i32
  br label %83

71:                                               ; preds = %2
  %72 = getelementptr inbounds nuw i8, ptr %0, i64 10
  %73 = load i16, ptr %72, align 2
  %74 = shl i16 %73, 10
  %75 = ashr exact i16 %74, 10
  %76 = sext i16 %75 to i32
  br label %83

77:                                               ; preds = %2
  %78 = getelementptr inbounds nuw i8, ptr %0, i64 10
  %79 = load i16, ptr %78, align 2
  %80 = shl i16 %79, 3
  %81 = ashr i16 %80, 9
  %82 = sext i16 %81 to i32
  br label %83

83:                                               ; preds = %2, %77, %71, %65, %59, %53, %47, %41, %36, %31, %27, %23, %19, %15, %11, %7, %3
  %.0 = phi i32 [ %82, %77 ], [ %76, %71 ], [ %70, %65 ], [ %64, %59 ], [ %58, %53 ], [ %52, %47 ], [ %46, %41 ], [ %40, %36 ], [ %35, %31 ], [ %30, %27 ], [ %26, %23 ], [ %22, %19 ], [ %18, %15 ], [ %14, %11 ], [ %10, %7 ], [ %6, %3 ], [ 999, %2 ]
  ret i32 %.0
}